; Function Attrs: nounwind uwtable
define void @llhttp_init(ptr noundef %0, i32 noundef %1, ptr noundef %2) local_unnamed_addr #0 {
  %4 = tail call i32 @llhttp__internal_init(ptr noundef %0) #10
  %5 = trunc i32 %1 to i8
  %6 = getelementptr inbounds nuw i8, ptr %0, i64 72
  store i8 %5, ptr %6, align 8, !tbaa !3
  %7 = getelementptr inbounds nuw i8, ptr %0, i64 88
  store ptr %2, ptr %7, align 8, !tbaa !12
  ret void
}